target datalayout = "e-m:e-p270:32:32-p271:32:32-p272:64:64-i64:64-i128:128-f80:128-n8:16:32:64-S128"
target triple = "x86_64-pc-linux-gnu"

@H5_init_g = external global i8, align 1
@H5_libterm_g = external global i8, align 1
@.str = private unnamed_addr constant [102 x i8] c"generated/home/dtcxzyw/WorkSpace/Projects/compilers/llvm-opt-benchmark/bench/hdf5/hdf5/src/H5system.c\00", align 1
@H5E_NOSPACE_g = external global i64, align 8
@.str.2 = private unnamed_addr constant [25 x i8] c"memory allocation failed\00", align 1
@.str.4 = private unnamed_addr constant [2 x i8] c"/\00", align 1
@__func__.H5_combine_path = private unnamed_addr constant [16 x i8] c"H5_combine_path\00", align 1
@H5E_RESOURCE_g = external global i64, align 8
@.str.5 = private unnamed_addr constant [35 x i8] c"unable to allocate filename buffer\00", align 1
@.str.6 = private unnamed_addr constant [7 x i8] c"%s%s%s\00", align 1
@.str.7 = private unnamed_addr constant [1 x i8] zeroinitializer, align 1

; Function Attrs: nounwind uwtable
define i32 @H5_combine_path(ptr noundef %0, ptr noundef %1, ptr noundef %2) #0 {
  %4 = alloca ptr, align 8
  %5 = alloca ptr, align 8
  %6 = alloca ptr, align 8
  %7 = alloca i64, align 8
  %8 = alloca i64, align 8
  %9 = alloca i32, align 4
  %10 = alloca i8, align 1
  store ptr %0, ptr %4, align 8, !tbaa !26
  store ptr %1, ptr %5, align 8, !tbaa !26
  store ptr %2, ptr %6, align 8, !tbaa !27
  call void @llvm.lifetime.start.p0(i64 8, ptr %7) #9
  store i64 0, ptr %7, align 8, !tbaa !18
  call void @llvm.lifetime.start.p0(i64 8, ptr %8) #9
  call void @llvm.lifetime.start.p0(i64 4, ptr %9) #9
  store i32 0, ptr %9, align 4, !tbaa !3
  call void @llvm.lifetime.start.p0(i64 1, ptr %10) #9
  store i8 0, ptr %10, align 1, !tbaa !19
  %11 = load i8, ptr @H5_init_g, align 1, !tbaa !19, !range !21, !noundef !22
  %12 = trunc i8 %11 to i1
  br i1 %12, label %17, label %13

13:                                               ; preds = %3
  %14 = load i8, ptr @H5_libterm_g, align 1, !tbaa !19, !range !21, !noundef !22
  %15 = trunc i8 %14 to i1
  %16 = xor i1 %15, true
  br label %17

17:                                               ; preds = %13, %3
  %18 = phi i1 [ true, %3 ], [ %16, %13 ]
  %19 = xor i1 %18, true
  %20 = xor i1 %19, true
  %21 = zext i1 %20 to i32
  %22 = sext i32 %21 to i64
  %23 = call i64 @llvm.expect.i64(i64 %22, i64 1)
  %24 = icmp ne i64 %23, 0
  br i1 %24, label %25, label %120

25:                                               ; preds = %17
  %26 = load ptr, ptr %4, align 8, !tbaa !26
  %27 = icmp ne ptr %26, null
  br i1 %27, label %28, label %31

28:                                               ; preds = %25
  %29 = load ptr, ptr %4, align 8, !tbaa !26
  %30 = call i64 @strlen(ptr noundef %29) #11
  store i64 %30, ptr %7, align 8, !tbaa !18
  br label %31

31:                                               ; preds = %28, %25
  %32 = load ptr, ptr %5, align 8, !tbaa !26
  %33 = call i64 @strlen(ptr noundef %32) #11
  store i64 %33, ptr %8, align 8, !tbaa !18
  %34 = load ptr, ptr %4, align 8, !tbaa !26
  %35 = icmp eq ptr %34, null
  br i1 %35, label %46, label %36

36:                                               ; preds = %31
  %37 = load ptr, ptr %4, align 8, !tbaa !26
  %38 = load i8, ptr %37, align 1, !tbaa !29
  %39 = sext i8 %38 to i32
  %40 = icmp eq i32 %39, 0
  br i1 %40, label %46, label %41

41:                                               ; preds = %36
  %42 = load ptr, ptr %5, align 8, !tbaa !26
  %43 = load i8, ptr %42, align 1, !tbaa !29
  %44 = sext i8 %43 to i32
  %45 = icmp eq i32 %44, 47
  br i1 %45, label %46, label %71

46:                                               ; preds = %41, %36, %31
  %47 = load ptr, ptr %5, align 8, !tbaa !26
  %48 = call noalias ptr @H5MM_strdup(ptr noundef %47)
  %49 = load ptr, ptr %6, align 8, !tbaa !27
  store ptr %48, ptr %49, align 8, !tbaa !26
  %50 = icmp eq ptr null, %48
  br i1 %50, label %51, label %70

51:                                               ; preds = %46
  br label %52

52:                                               ; preds = %51
  br label %53

53:                                               ; preds = %52
  br label %54

54:                                               ; preds = %53
  %55 = load i64, ptr @H5E_RESOURCE_g, align 8, !tbaa !18
  %56 = load i64, ptr @H5E_NOSPACE_g, align 8, !tbaa !18
  %57 = call i32 (ptr, ptr, i32, i64, i64, ptr, ...) @H5E_printf_stack(ptr noundef @.str, ptr noundef @__func__.H5_combine_path, i32 noundef 743, i64 noundef %55, i64 noundef %56, ptr noundef @.str.2)
  br label %58

58:                                               ; preds = %54
  br label %59

59:                                               ; preds = %58
  store i8 1, ptr %10, align 1, !tbaa !19
  %60 = load i8, ptr %10, align 1, !tbaa !19, !range !21, !noundef !22
  %61 = trunc i8 %60 to i1
  %62 = zext i1 %61 to i8
  store i8 %62, ptr %10, align 1, !tbaa !19
  br label %63

63:                                               ; preds = %59
  br label %64

64:                                               ; preds = %63
  br label %65

65:                                               ; preds = %64
  store i32 -1, ptr %9, align 4, !tbaa !3
  br label %119

66:                                               ; No predecessors!
  br label %67

67:                                               ; preds = %66
  br label %68

68:                                               ; preds = %67
  br label %69

69:                                               ; preds = %68
  br label %70

70:                                               ; preds = %69, %46
  br label %118

71:                                               ; preds = %41
  %72 = load i64, ptr %7, align 8, !tbaa !18
  %73 = load i64, ptr %8, align 8, !tbaa !18
  %74 = add i64 %72, %73
  %75 = add i64 %74, 2
  %76 = add i64 %75, 2
  %77 = call noalias ptr @malloc(i64 noundef %76) #10
  %78 = load ptr, ptr %6, align 8, !tbaa !27
  store ptr %77, ptr %78, align 8, !tbaa !26
  %79 = icmp eq ptr null, %77
  br i1 %79, label %80, label %99

80:                                               ; preds = %71
  br label %81

81:                                               ; preds = %80
  br label %82

82:                                               ; preds = %81
  br label %83

83:                                               ; preds = %82
  %84 = load i64, ptr @H5E_RESOURCE_g, align 8, !tbaa !18
  %85 = load i64, ptr @H5E_NOSPACE_g, align 8, !tbaa !18
  %86 = call i32 (ptr, ptr, i32, i64, i64, ptr, ...) @H5E_printf_stack(ptr noundef @.str, ptr noundef @__func__.H5_combine_path, i32 noundef 776, i64 noundef %84, i64 noundef %85, ptr noundef @.str.5)
  br label %87

87:                                               ; preds = %83
  br label %88

88:                                               ; preds = %87
  store i8 1, ptr %10, align 1, !tbaa !19
  %89 = load i8, ptr %10, align 1, !tbaa !19, !range !21, !noundef !22
  %90 = trunc i8 %89 to i1
  %91 = zext i1 %90 to i8
  store i8 %91, ptr %10, align 1, !tbaa !19
  br label %92

92:                                               ; preds = %88
  br label %93

93:                                               ; preds = %92
  br label %94

94:                                               ; preds = %93
  store i32 -1, ptr %9, align 4, !tbaa !3
  br label %119

95:                                               ; No predecessors!
  br label %96

96:                                               ; preds = %95
  br label %97

97:                                               ; preds = %96
  br label %98

98:                                               ; preds = %97
  br label %99

99:                                               ; preds = %98, %71
  %100 = load ptr, ptr %6, align 8, !tbaa !27
  %101 = load ptr, ptr %100, align 8, !tbaa !26
  %102 = load i64, ptr %7, align 8, !tbaa !18
  %103 = load i64, ptr %8, align 8, !tbaa !18
  %104 = add i64 %102, %103
  %105 = add i64 %104, 2
  %106 = add i64 %105, 2
  %107 = load ptr, ptr %4, align 8, !tbaa !26
  %108 = load ptr, ptr %4, align 8, !tbaa !26
  %109 = load i64, ptr %7, align 8, !tbaa !18
  %110 = sub i64 %109, 1
  %111 = getelementptr inbounds nuw i8, ptr %108, i64 %110
  %112 = load i8, ptr %111, align 1, !tbaa !29
  %113 = sext i8 %112 to i32
  %114 = icmp eq i32 %113, 47
  %115 = select i1 %114, ptr @.str.7, ptr @.str.4
  %116 = load ptr, ptr %5, align 8, !tbaa !26
  %117 = call i32 (ptr, i64, ptr, ...) @snprintf(ptr noundef %101, i64 noundef %106, ptr noundef @.str.6, ptr noundef %107, ptr noundef %115, ptr noundef %116) #9
  br label %118

118:                                              ; preds = %99, %70
  br label %119

119:                                              ; preds = %118, %94, %65
  br label %120

120:                                              ; preds = %119, %17
  %121 = load i32, ptr %9, align 4, !tbaa !3
  call void @llvm.lifetime.end.p0(i64 1, ptr %10) #9
  call void @llvm.lifetime.end.p0(i64 4, ptr %9) #9
  call void @llvm.lifetime.end.p0(i64 8, ptr %8) #9
  call void @llvm.lifetime.end.p0(i64 8, ptr %7) #9
  ret i32 %121
}