; Function Attrs: nounwind uwtable
define range(i32 -1, 1) i32 @H5_combine_path(ptr noundef %0, ptr noundef %1, ptr noundef writeonly captures(none) %2) local_unnamed_addr #0 {
  %4 = load i8, ptr @H5_init_g, align 1, !tbaa !11, !range !13, !noundef !14
  %5 = trunc nuw i8 %4 to i1
  %6 = load i8, ptr @H5_libterm_g, align 1, !range !13
  %7 = trunc nuw i8 %6 to i1
  %8 = xor i1 %7, true
  %9 = select i1 %5, i1 true, i1 %8
  br i1 %9, label %10, label %41, !prof !15

10:                                               ; preds = %3
  %.not = icmp eq ptr %0, null
  br i1 %.not, label %.thread, label %11

11:                                               ; preds = %10
  %12 = tail call i64 @strlen(ptr noundef nonnull dereferenceable(1) %0) #17
  %13 = tail call i64 @strlen(ptr noundef nonnull dereferenceable(1) %1) #17
  %14 = load i8, ptr %0, align 1, !tbaa !22
  %15 = icmp eq i8 %14, 0
  br i1 %15, label %.thread, label %16

16:                                               ; preds = %11
  %17 = load i8, ptr %1, align 1, !tbaa !22
  %18 = icmp eq i8 %17, 47
  br i1 %18, label %.thread, label %25

.thread:                                          ; preds = %10, %16, %11
  %19 = tail call noalias ptr @H5MM_strdup(ptr noundef nonnull %1) #15
  store ptr %19, ptr %2, align 8, !tbaa !21
  %20 = icmp eq ptr %19, null
  br i1 %20, label %21, label %41

21:                                               ; preds = %.thread
  %22 = load i64, ptr @H5E_RESOURCE_g, align 8, !tbaa !16
  %23 = load i64, ptr @H5E_NOSPACE_g, align 8, !tbaa !16
  %24 = tail call i32 (ptr, ptr, i32, i64, i64, ptr, ...) @H5E_printf_stack(ptr noundef nonnull @.str, ptr noundef nonnull @__func__.H5_combine_path, i32 noundef 743, i64 noundef %22, i64 noundef %23, ptr noundef nonnull @.str.2) #15
  br label %41

25:                                               ; preds = %16
  %26 = add i64 %12, 4
  %27 = add i64 %26, %13
  %28 = tail call noalias ptr @malloc(i64 noundef %27) #16
  store ptr %28, ptr %2, align 8, !tbaa !21
  %29 = icmp eq ptr %28, null
  br i1 %29, label %30, label %34

30:                                               ; preds = %25
  %31 = load i64, ptr @H5E_RESOURCE_g, align 8, !tbaa !16
  %32 = load i64, ptr @H5E_NOSPACE_g, align 8, !tbaa !16
  %33 = tail call i32 (ptr, ptr, i32, i64, i64, ptr, ...) @H5E_printf_stack(ptr noundef nonnull @.str, ptr noundef nonnull @__func__.H5_combine_path, i32 noundef 776, i64 noundef %31, i64 noundef %32, ptr noundef nonnull @.str.5) #15
  br label %41

34:                                               ; preds = %25
  %35 = getelementptr i8, ptr %0, i64 %12
  %36 = getelementptr i8, ptr %35, i64 -1
  %37 = load i8, ptr %36, align 1, !tbaa !22
  %38 = icmp eq i8 %37, 47
  %39 = select i1 %38, ptr @.str.7, ptr @.str.4
  %40 = tail call i32 (ptr, i64, ptr, ...) @snprintf(ptr noundef nonnull %28, i64 noundef %27, ptr noundef nonnull @.str.6, ptr noundef nonnull %0, ptr noundef nonnull %39, ptr noundef nonnull %1) #15
  br label %41

41:                                               ; preds = %21, %30, %.thread, %34, %3
  %.0 = phi i32 [ -1, %21 ], [ 0, %.thread ], [ -1, %30 ], [ 0, %34 ], [ 0, %3 ]
  ret i32 %.0
}